; Function Attrs: nounwind sspstrong uwtable
define dso_local void @qemu_log_unlock(ptr noundef %logfile) local_unnamed_addr #2 {
entry:
  %tobool.not = icmp eq ptr %logfile, null
  br i1 %tobool.not, label %if.end3, label %if.then

if.then:                                          ; preds = %entry
  %call = tail call i32 @fflush(ptr noundef nonnull %logfile)
  tail call void @funlockfile(ptr noundef nonnull %logfile) #15
  %.b3 = load i1, ptr @log_per_thread, align 1
  br i1 %.b3, label %if.end3, label %if.then2

if.then2:                                         ; preds = %if.then
  %call.i = tail call ptr @get_ptr_rcu_reader() #15
  %depth.i = getelementptr inbounds nuw i8, ptr %call.i, i64 12
  %0 = load i32, ptr %depth.i, align 4
  %cmp.not.i = icmp eq i32 %0, 0
  br i1 %cmp.not.i, label %if.else.i, label %if.end.i

if.else.i:                                        ; preds = %if.then2
  tail call void @__assert_fail(ptr noundef nonnull @.str.58, ptr noundef nonnull @.str.57, i32 noundef 101, ptr noundef nonnull @__PRETTY_FUNCTION__.rcu_read_unlock) #17
  unreachable

if.end.i:                                         ; preds = %if.then2
  %dec.i = add i32 %0, -1
  store i32 %dec.i, ptr %depth.i, align 4
  %cmp2.not.i = icmp eq i32 %dec.i, 0
  br i1 %cmp2.not.i, label %while.end.i, label %if.end3

while.end.i:                                      ; preds = %if.end.i
  store atomic i64 0, ptr %call.i release, align 8
  tail call void asm sideeffect "", "~{memory},~{dirflag},~{fpsr},~{flags}"() #15, !srcloc !7
  fence seq_cst
  %waiting.i = getelementptr inbounds nuw i8, ptr %call.i, i64 8
  %1 = load atomic i8, ptr %waiting.i monotonic, align 8
  %tobool.i = trunc i8 %1 to i1
  br i1 %tobool.i, label %while.end21.i, label %if.end3

while.end21.i:                                    ; preds = %while.end.i
  store atomic i8 0, ptr %waiting.i monotonic, align 8
  tail call void @qemu_event_set(ptr noundef nonnull @rcu_gp_event) #15
  br label %if.end3

if.end3:                                          ; preds = %while.end21.i, %while.end.i, %if.end.i, %if.then, %entry
  ret void
}